
_testcase-sched:     file format elf32-i386


Disassembly of section .text:

00000000 <main>:
      for (j = 0; j < 1024 * 10; j++)
        data[j]++;
  }
}
int main(int argc, char *argv[])
{
   0:	8d 4c 24 04          	lea    0x4(%esp),%ecx
   4:	83 e4 f0             	and    $0xfffffff0,%esp
   7:	ff 71 fc             	push   -0x4(%ecx)
   a:	55                   	push   %ebp
   b:	89 e5                	mov    %esp,%ebp
   d:	57                   	push   %edi
   e:	56                   	push   %esi
   f:	53                   	push   %ebx
  int pids[N];
  int rets[N];
  setprio(400);
  printf(1, "Priority of parent process = %d\n", getprio());

  for (int i = 0; i < N; i++)
  10:	31 db                	xor    %ebx,%ebx
{
  12:	51                   	push   %ecx
  13:	81 ec a4 01 00 00    	sub    $0x1a4,%esp
  setprio(400);
  19:	68 90 01 00 00       	push   $0x190
  1e:	e8 98 04 00 00       	call   4bb <setprio>
  printf(1, "Priority of parent process = %d\n", getprio());
  23:	e8 9b 04 00 00       	call   4c3 <getprio>
  28:	83 c4 0c             	add    $0xc,%esp
  2b:	50                   	push   %eax
  2c:	68 30 09 00 00       	push   $0x930
  31:	6a 01                	push   $0x1
  33:	e8 68 05 00 00       	call   5a0 <printf>
  38:	83 c4 10             	add    $0x10,%esp
  3b:	eb 14                	jmp    51 <main+0x51>
  3d:	8d 76 00             	lea    0x0(%esi),%esi
    {
      setprio(priority);
      delay(20);
      exit();
    }
    else if (ret > 0)
  40:	7e 38                	jle    7a <main+0x7a>
    {
      pids[i] = ret;
  42:	89 84 9d 58 fe ff ff 	mov    %eax,-0x1a8(%ebp,%ebx,4)
  for (int i = 0; i < N; i++)
  49:	83 c3 01             	add    $0x1,%ebx
  4c:	83 fb 32             	cmp    $0x32,%ebx
  4f:	74 3c                	je     8d <main+0x8d>
    int ret = fork();
  51:	e8 85 03 00 00       	call   3db <fork>
    if (ret == 0)
  56:	85 c0                	test   %eax,%eax
  58:	75 e6                	jne    40 <main+0x40>
    int priority = 10 * i + 1;
  5a:	6b db 0a             	imul   $0xa,%ebx,%ebx
      setprio(priority);
  5d:	83 ec 0c             	sub    $0xc,%esp
    int priority = 10 * i + 1;
  60:	83 c3 01             	add    $0x1,%ebx
      setprio(priority);
  63:	53                   	push   %ebx
  64:	e8 52 04 00 00       	call   4bb <setprio>
      delay(20);
  69:	c7 04 24 14 00 00 00 	movl   $0x14,(%esp)
  70:	e8 ab 00 00 00       	call   120 <delay>
      exit();
  75:	e8 69 03 00 00       	call   3e3 <exit>
    }
    else
    {
      printf(1, "fork error \n");
  7a:	51                   	push   %ecx
  7b:	51                   	push   %ecx
  7c:	68 e5 08 00 00       	push   $0x8e5
  81:	6a 01                	push   $0x1
  83:	e8 18 05 00 00       	call   5a0 <printf>
      exit();
  88:	e8 56 03 00 00       	call   3e3 <exit>
  8d:	8d b5 20 ff ff ff    	lea    -0xe0(%ebp),%esi
  93:	8d 7d e8             	lea    -0x18(%ebp),%edi
  for (int i = 0; i < N; i++)
  96:	89 f3                	mov    %esi,%ebx
  98:	8d b4 26 00 00 00 00 	lea    0x0(%esi,%eiz,1),%esi
  9f:	90                   	nop
    }
  }

  for (int i = 0; i < N; i++)
  {
    rets[i] = wait();
  a0:	e8 46 03 00 00       	call   3eb <wait>
  for (int i = 0; i < N; i++)
  a5:	83 c3 04             	add    $0x4,%ebx
    rets[i] = wait();
  a8:	89 43 fc             	mov    %eax,-0x4(%ebx)
  for (int i = 0; i < N; i++)
  ab:	39 fb                	cmp    %edi,%ebx
  ad:	75 f1                	jne    a0 <main+0xa0>
  }

  printf(1, "\nAll children completed\n");
  af:	52                   	push   %edx
  for (int i = 0; i < N; i++)
  b0:	31 db                	xor    %ebx,%ebx
  printf(1, "\nAll children completed\n");
  b2:	52                   	push   %edx
  b3:	68 f2 08 00 00       	push   $0x8f2
  b8:	6a 01                	push   $0x1
  ba:	e8 e1 04 00 00       	call   5a0 <printf>
  bf:	83 c4 10             	add    $0x10,%esp
  c2:	8d b6 00 00 00 00    	lea    0x0(%esi),%esi
    printf(1, "Child %d.    pid %d\n", i, pids[i]);
  c8:	ff b4 9d 58 fe ff ff 	push   -0x1a8(%ebp,%ebx,4)
  cf:	53                   	push   %ebx
  for (int i = 0; i < N; i++)
  d0:	83 c3 01             	add    $0x1,%ebx
    printf(1, "Child %d.    pid %d\n", i, pids[i]);
  d3:	68 0b 09 00 00       	push   $0x90b
  d8:	6a 01                	push   $0x1
  da:	e8 c1 04 00 00       	call   5a0 <printf>
  for (int i = 0; i < N; i++)
  df:	83 c4 10             	add    $0x10,%esp
  e2:	83 fb 32             	cmp    $0x32,%ebx
  e5:	75 e1                	jne    c8 <main+0xc8>

  printf(1, "\nExit order \n");
  e7:	50                   	push   %eax
  e8:	50                   	push   %eax
  e9:	68 20 09 00 00       	push   $0x920
  ee:	6a 01                	push   $0x1
  f0:	e8 ab 04 00 00       	call   5a0 <printf>
  f5:	83 c4 10             	add    $0x10,%esp
  f8:	8d b4 26 00 00 00 00 	lea    0x0(%esi,%eiz,1),%esi
  ff:	90                   	nop
  for (int i = 0; i < N; i++)
    printf(1, "pid %d\n", rets[i]);
 100:	83 ec 04             	sub    $0x4,%esp
 103:	ff 36                	push   (%esi)
  for (int i = 0; i < N; i++)
 105:	83 c6 04             	add    $0x4,%esi
    printf(1, "pid %d\n", rets[i]);
 108:	68 18 09 00 00       	push   $0x918
 10d:	6a 01                	push   $0x1
 10f:	e8 8c 04 00 00       	call   5a0 <printf>
  for (int i = 0; i < N; i++)
 114:	83 c4 10             	add    $0x10,%esp
 117:	39 f7                	cmp    %esi,%edi
 119:	75 e5                	jne    100 <main+0x100>

  exit();
 11b:	e8 c3 02 00 00       	call   3e3 <exit>

00000120 <delay>:
{
 120:	55                   	push   %ebp
 121:	89 e5                	mov    %esp,%ebp
 123:	57                   	push   %edi
 124:	56                   	push   %esi
 125:	53                   	push   %ebx
 126:	83 ec 18             	sub    $0x18,%esp
 129:	8b 7d 08             	mov    0x8(%ebp),%edi
  data = (int *)malloc(sizeof(int) * 1024 * 10);
 12c:	68 00 a0 00 00       	push   $0xa000
 131:	e8 9a 06 00 00       	call   7d0 <malloc>
  if (data <= 0)
 136:	83 c4 10             	add    $0x10,%esp
  data = (int *)malloc(sizeof(int) * 1024 * 10);
 139:	89 c3                	mov    %eax,%ebx
  if (data <= 0)
 13b:	85 c0                	test   %eax,%eax
 13d:	74 37                	je     176 <delay+0x56>
  for (i = 0; i < count; i++)
 13f:	31 f6                	xor    %esi,%esi
 141:	8d 93 00 a0 00 00    	lea    0xa000(%ebx),%edx
 147:	85 ff                	test   %edi,%edi
 149:	7e 23                	jle    16e <delay+0x4e>
{
 14b:	b9 44 16 00 00       	mov    $0x1644,%ecx
      for (j = 0; j < 1024 * 10; j++)
 150:	89 d8                	mov    %ebx,%eax
 152:	8d b6 00 00 00 00    	lea    0x0(%esi),%esi
        data[j]++;
 158:	83 00 01             	addl   $0x1,(%eax)
      for (j = 0; j < 1024 * 10; j++)
 15b:	83 c0 04             	add    $0x4,%eax
 15e:	39 d0                	cmp    %edx,%eax
 160:	75 f6                	jne    158 <delay+0x38>
    for (k = 0; k < 5700; k++)
 162:	83 e9 01             	sub    $0x1,%ecx
 165:	75 e9                	jne    150 <delay+0x30>
  for (i = 0; i < count; i++)
 167:	83 c6 01             	add    $0x1,%esi
 16a:	39 f7                	cmp    %esi,%edi
 16c:	75 dd                	jne    14b <delay+0x2b>
}
 16e:	8d 65 f4             	lea    -0xc(%ebp),%esp
 171:	5b                   	pop    %ebx
 172:	5e                   	pop    %esi
 173:	5f                   	pop    %edi
 174:	5d                   	pop    %ebp
 175:	c3                   	ret    
    printf(1, "Error on memory allocation \n");
 176:	83 ec 08             	sub    $0x8,%esp
 179:	68 c8 08 00 00       	push   $0x8c8
 17e:	6a 01                	push   $0x1
 180:	e8 1b 04 00 00       	call   5a0 <printf>
 185:	83 c4 10             	add    $0x10,%esp
 188:	eb b5                	jmp    13f <delay+0x1f>
 18a:	66 90                	xchg   %ax,%ax
 18c:	66 90                	xchg   %ax,%ax
 18e:	66 90                	xchg   %ax,%ax

00000190 <strcpy>:
#include "user.h"
#include "x86.h"

char*
strcpy(char *s, const char *t)
{
 190:	55                   	push   %ebp
  char *os;

  os = s;
  while((*s++ = *t++) != 0)
 191:	31 c0                	xor    %eax,%eax
{
 193:	89 e5                	mov    %esp,%ebp
 195:	53                   	push   %ebx
 196:	8b 4d 08             	mov    0x8(%ebp),%ecx
 199:	8b 5d 0c             	mov    0xc(%ebp),%ebx
 19c:	8d 74 26 00          	lea    0x0(%esi,%eiz,1),%esi
  while((*s++ = *t++) != 0)
 1a0:	0f b6 14 03          	movzbl (%ebx,%eax,1),%edx
 1a4:	88 14 01             	mov    %dl,(%ecx,%eax,1)
 1a7:	83 c0 01             	add    $0x1,%eax
 1aa:	84 d2                	test   %dl,%dl
 1ac:	75 f2                	jne    1a0 <strcpy+0x10>
    ;
  return os;
}
 1ae:	8b 5d fc             	mov    -0x4(%ebp),%ebx
 1b1:	89 c8                	mov    %ecx,%eax
 1b3:	c9                   	leave  
 1b4:	c3                   	ret    
 1b5:	8d b4 26 00 00 00 00 	lea    0x0(%esi,%eiz,1),%esi
 1bc:	8d 74 26 00          	lea    0x0(%esi,%eiz,1),%esi

000001c0 <strcmp>:

int
strcmp(const char *p, const char *q)
{
 1c0:	55                   	push   %ebp
 1c1:	89 e5                	mov    %esp,%ebp
 1c3:	53                   	push   %ebx
 1c4:	8b 55 08             	mov    0x8(%ebp),%edx
 1c7:	8b 4d 0c             	mov    0xc(%ebp),%ecx
  while(*p && *p == *q)
 1ca:	0f b6 02             	movzbl (%edx),%eax
 1cd:	84 c0                	test   %al,%al
 1cf:	75 17                	jne    1e8 <strcmp+0x28>
 1d1:	eb 3a                	jmp    20d <strcmp+0x4d>
 1d3:	8d 74 26 00          	lea    0x0(%esi,%eiz,1),%esi
 1d7:	90                   	nop
 1d8:	0f b6 42 01          	movzbl 0x1(%edx),%eax
    p++, q++;
 1dc:	83 c2 01             	add    $0x1,%edx
 1df:	8d 59 01             	lea    0x1(%ecx),%ebx
  while(*p && *p == *q)
 1e2:	84 c0                	test   %al,%al
 1e4:	74 1a                	je     200 <strcmp+0x40>
    p++, q++;
 1e6:	89 d9                	mov    %ebx,%ecx
  while(*p && *p == *q)
 1e8:	0f b6 19             	movzbl (%ecx),%ebx
 1eb:	38 c3                	cmp    %al,%bl
 1ed:	74 e9                	je     1d8 <strcmp+0x18>
  return (uchar)*p - (uchar)*q;
 1ef:	29 d8                	sub    %ebx,%eax
}
 1f1:	8b 5d fc             	mov    -0x4(%ebp),%ebx
 1f4:	c9                   	leave  
 1f5:	c3                   	ret    
 1f6:	8d b4 26 00 00 00 00 	lea    0x0(%esi,%eiz,1),%esi
 1fd:	8d 76 00             	lea    0x0(%esi),%esi
  return (uchar)*p - (uchar)*q;
 200:	0f b6 59 01          	movzbl 0x1(%ecx),%ebx
 204:	31 c0                	xor    %eax,%eax
 206:	29 d8                	sub    %ebx,%eax
}
 208:	8b 5d fc             	mov    -0x4(%ebp),%ebx
 20b:	c9                   	leave  
 20c:	c3                   	ret    
  return (uchar)*p - (uchar)*q;
 20d:	0f b6 19             	movzbl (%ecx),%ebx
 210:	31 c0                	xor    %eax,%eax
 212:	eb db                	jmp    1ef <strcmp+0x2f>
 214:	8d b4 26 00 00 00 00 	lea    0x0(%esi,%eiz,1),%esi
 21b:	8d 74 26 00          	lea    0x0(%esi,%eiz,1),%esi
 21f:	90                   	nop

00000220 <strlen>:

uint
strlen(const char *s)
{
 220:	55                   	push   %ebp
 221:	89 e5                	mov    %esp,%ebp
 223:	8b 55 08             	mov    0x8(%ebp),%edx
  int n;

  for(n = 0; s[n]; n++)
 226:	80 3a 00             	cmpb   $0x0,(%edx)
 229:	74 15                	je     240 <strlen+0x20>
 22b:	31 c0                	xor    %eax,%eax
 22d:	8d 76 00             	lea    0x0(%esi),%esi
 230:	83 c0 01             	add    $0x1,%eax
 233:	80 3c 02 00          	cmpb   $0x0,(%edx,%eax,1)
 237:	89 c1                	mov    %eax,%ecx
 239:	75 f5                	jne    230 <strlen+0x10>
    ;
  return n;
}
 23b:	89 c8                	mov    %ecx,%eax
 23d:	5d                   	pop    %ebp
 23e:	c3                   	ret    
 23f:	90                   	nop
  for(n = 0; s[n]; n++)
 240:	31 c9                	xor    %ecx,%ecx
}
 242:	5d                   	pop    %ebp
 243:	89 c8                	mov    %ecx,%eax
 245:	c3                   	ret    
 246:	8d b4 26 00 00 00 00 	lea    0x0(%esi,%eiz,1),%esi
 24d:	8d 76 00             	lea    0x0(%esi),%esi

00000250 <memset>:

void*
memset(void *dst, int c, uint n)
{
 250:	55                   	push   %ebp
 251:	89 e5                	mov    %esp,%ebp
 253:	57                   	push   %edi
 254:	8b 55 08             	mov    0x8(%ebp),%edx
}

static inline void
stosb(void *addr, int data, int cnt)
{
  asm volatile("cld; rep stosb" :
 257:	8b 4d 10             	mov    0x10(%ebp),%ecx
 25a:	8b 45 0c             	mov    0xc(%ebp),%eax
 25d:	89 d7                	mov    %edx,%edi
 25f:	fc                   	cld    
 260:	f3 aa                	rep stos %al,%es:(%edi)
  stosb(dst, c, n);
  return dst;
}
 262:	8b 7d fc             	mov    -0x4(%ebp),%edi
 265:	89 d0                	mov    %edx,%eax
 267:	c9                   	leave  
 268:	c3                   	ret    
 269:	8d b4 26 00 00 00 00 	lea    0x0(%esi,%eiz,1),%esi

00000270 <strchr>:

char*
strchr(const char *s, char c)
{
 270:	55                   	push   %ebp
 271:	89 e5                	mov    %esp,%ebp
 273:	8b 45 08             	mov    0x8(%ebp),%eax
 276:	0f b6 4d 0c          	movzbl 0xc(%ebp),%ecx
  for(; *s; s++)
 27a:	0f b6 10             	movzbl (%eax),%edx
 27d:	84 d2                	test   %dl,%dl
 27f:	75 12                	jne    293 <strchr+0x23>
 281:	eb 1d                	jmp    2a0 <strchr+0x30>
 283:	8d 74 26 00          	lea    0x0(%esi,%eiz,1),%esi
 287:	90                   	nop
 288:	0f b6 50 01          	movzbl 0x1(%eax),%edx
 28c:	83 c0 01             	add    $0x1,%eax
 28f:	84 d2                	test   %dl,%dl
 291:	74 0d                	je     2a0 <strchr+0x30>
    if(*s == c)
 293:	38 d1                	cmp    %dl,%cl
 295:	75 f1                	jne    288 <strchr+0x18>
      return (char*)s;
  return 0;
}
 297:	5d                   	pop    %ebp
 298:	c3                   	ret    
 299:	8d b4 26 00 00 00 00 	lea    0x0(%esi,%eiz,1),%esi
  return 0;
 2a0:	31 c0                	xor    %eax,%eax
}
 2a2:	5d                   	pop    %ebp
 2a3:	c3                   	ret    
 2a4:	8d b4 26 00 00 00 00 	lea    0x0(%esi,%eiz,1),%esi
 2ab:	8d 74 26 00          	lea    0x0(%esi,%eiz,1),%esi
 2af:	90                   	nop

000002b0 <gets>:

char*
gets(char *buf, int max)
{
 2b0:	55                   	push   %ebp
 2b1:	89 e5                	mov    %esp,%ebp
 2b3:	57                   	push   %edi
 2b4:	56                   	push   %esi
  int i, cc;
  char c;

  for(i=0; i+1 < max; ){
    cc = read(0, &c, 1);
 2b5:	8d 7d e7             	lea    -0x19(%ebp),%edi
{
 2b8:	53                   	push   %ebx
  for(i=0; i+1 < max; ){
 2b9:	31 db                	xor    %ebx,%ebx
{
 2bb:	83 ec 1c             	sub    $0x1c,%esp
  for(i=0; i+1 < max; ){
 2be:	eb 27                	jmp    2e7 <gets+0x37>
    cc = read(0, &c, 1);
 2c0:	83 ec 04             	sub    $0x4,%esp
 2c3:	6a 01                	push   $0x1
 2c5:	57                   	push   %edi
 2c6:	6a 00                	push   $0x0
 2c8:	e8 2e 01 00 00       	call   3fb <read>
    if(cc < 1)
 2cd:	83 c4 10             	add    $0x10,%esp
 2d0:	85 c0                	test   %eax,%eax
 2d2:	7e 1d                	jle    2f1 <gets+0x41>
      break;
    buf[i++] = c;
 2d4:	0f b6 45 e7          	movzbl -0x19(%ebp),%eax
 2d8:	8b 55 08             	mov    0x8(%ebp),%edx
 2db:	88 44 1a ff          	mov    %al,-0x1(%edx,%ebx,1)
    if(c == '\n' || c == '\r')
 2df:	3c 0a                	cmp    $0xa,%al
 2e1:	74 1d                	je     300 <gets+0x50>
 2e3:	3c 0d                	cmp    $0xd,%al
 2e5:	74 19                	je     300 <gets+0x50>
  for(i=0; i+1 < max; ){
 2e7:	89 de                	mov    %ebx,%esi
 2e9:	83 c3 01             	add    $0x1,%ebx
 2ec:	3b 5d 0c             	cmp    0xc(%ebp),%ebx
 2ef:	7c cf                	jl     2c0 <gets+0x10>
      break;
  }
  buf[i] = '\0';
 2f1:	8b 45 08             	mov    0x8(%ebp),%eax
 2f4:	c6 04 30 00          	movb   $0x0,(%eax,%esi,1)
  return buf;
}
 2f8:	8d 65 f4             	lea    -0xc(%ebp),%esp
 2fb:	5b                   	pop    %ebx
 2fc:	5e                   	pop    %esi
 2fd:	5f                   	pop    %edi
 2fe:	5d                   	pop    %ebp
 2ff:	c3                   	ret    
  buf[i] = '\0';
 300:	8b 45 08             	mov    0x8(%ebp),%eax
 303:	89 de                	mov    %ebx,%esi
 305:	c6 04 30 00          	movb   $0x0,(%eax,%esi,1)
}
 309:	8d 65 f4             	lea    -0xc(%ebp),%esp
 30c:	5b                   	pop    %ebx
 30d:	5e                   	pop    %esi
 30e:	5f                   	pop    %edi
 30f:	5d                   	pop    %ebp
 310:	c3                   	ret    
 311:	8d b4 26 00 00 00 00 	lea    0x0(%esi,%eiz,1),%esi
 318:	8d b4 26 00 00 00 00 	lea    0x0(%esi,%eiz,1),%esi
 31f:	90                   	nop

00000320 <stat>:

int
stat(const char *n, struct stat *st)
{
 320:	55                   	push   %ebp
 321:	89 e5                	mov    %esp,%ebp
 323:	56                   	push   %esi
 324:	53                   	push   %ebx
  int fd;
  int r;

  fd = open(n, O_RDONLY);
 325:	83 ec 08             	sub    $0x8,%esp
 328:	6a 00                	push   $0x0
 32a:	ff 75 08             	push   0x8(%ebp)
 32d:	e8 f1 00 00 00       	call   423 <open>
  if(fd < 0)
 332:	83 c4 10             	add    $0x10,%esp
 335:	85 c0                	test   %eax,%eax
 337:	78 27                	js     360 <stat+0x40>
    return -1;
  r = fstat(fd, st);
 339:	83 ec 08             	sub    $0x8,%esp
 33c:	ff 75 0c             	push   0xc(%ebp)
 33f:	89 c3                	mov    %eax,%ebx
 341:	50                   	push   %eax
 342:	e8 f4 00 00 00       	call   43b <fstat>
  close(fd);
 347:	89 1c 24             	mov    %ebx,(%esp)
  r = fstat(fd, st);
 34a:	89 c6                	mov    %eax,%esi
  close(fd);
 34c:	e8 ba 00 00 00       	call   40b <close>
  return r;
 351:	83 c4 10             	add    $0x10,%esp
}
 354:	8d 65 f8             	lea    -0x8(%ebp),%esp
 357:	89 f0                	mov    %esi,%eax
 359:	5b                   	pop    %ebx
 35a:	5e                   	pop    %esi
 35b:	5d                   	pop    %ebp
 35c:	c3                   	ret    
 35d:	8d 76 00             	lea    0x0(%esi),%esi
    return -1;
 360:	be ff ff ff ff       	mov    $0xffffffff,%esi
 365:	eb ed                	jmp    354 <stat+0x34>
 367:	8d b4 26 00 00 00 00 	lea    0x0(%esi,%eiz,1),%esi
 36e:	66 90                	xchg   %ax,%ax

00000370 <atoi>:

int
atoi(const char *s)
{
 370:	55                   	push   %ebp
 371:	89 e5                	mov    %esp,%ebp
 373:	53                   	push   %ebx
 374:	8b 55 08             	mov    0x8(%ebp),%edx
  int n;

  n = 0;
  while('0' <= *s && *s <= '9')
 377:	0f be 02             	movsbl (%edx),%eax
 37a:	8d 48 d0             	lea    -0x30(%eax),%ecx
 37d:	80 f9 09             	cmp    $0x9,%cl
  n = 0;
 380:	b9 00 00 00 00       	mov    $0x0,%ecx
  while('0' <= *s && *s <= '9')
 385:	77 1e                	ja     3a5 <atoi+0x35>
 387:	8d b4 26 00 00 00 00 	lea    0x0(%esi,%eiz,1),%esi
 38e:	66 90                	xchg   %ax,%ax
    n = n*10 + *s++ - '0';
 390:	83 c2 01             	add    $0x1,%edx
 393:	8d 0c 89             	lea    (%ecx,%ecx,4),%ecx
 396:	8d 4c 48 d0          	lea    -0x30(%eax,%ecx,2),%ecx
  while('0' <= *s && *s <= '9')
 39a:	0f be 02             	movsbl (%edx),%eax
 39d:	8d 58 d0             	lea    -0x30(%eax),%ebx
 3a0:	80 fb 09             	cmp    $0x9,%bl
 3a3:	76 eb                	jbe    390 <atoi+0x20>
  return n;
}
 3a5:	8b 5d fc             	mov    -0x4(%ebp),%ebx
 3a8:	89 c8                	mov    %ecx,%eax
 3aa:	c9                   	leave  
 3ab:	c3                   	ret    
 3ac:	8d 74 26 00          	lea    0x0(%esi,%eiz,1),%esi

000003b0 <memmove>:

void*
memmove(void *vdst, const void *vsrc, int n)
{
 3b0:	55                   	push   %ebp
 3b1:	89 e5                	mov    %esp,%ebp
 3b3:	57                   	push   %edi
 3b4:	8b 45 10             	mov    0x10(%ebp),%eax
 3b7:	8b 55 08             	mov    0x8(%ebp),%edx
 3ba:	56                   	push   %esi
 3bb:	8b 75 0c             	mov    0xc(%ebp),%esi
  char *dst;
  const char *src;

  dst = vdst;
  src = vsrc;
  while(n-- > 0)
 3be:	85 c0                	test   %eax,%eax
 3c0:	7e 13                	jle    3d5 <memmove+0x25>
 3c2:	01 d0                	add    %edx,%eax
  dst = vdst;
 3c4:	89 d7                	mov    %edx,%edi
 3c6:	8d b4 26 00 00 00 00 	lea    0x0(%esi,%eiz,1),%esi
 3cd:	8d 76 00             	lea    0x0(%esi),%esi
    *dst++ = *src++;
 3d0:	a4                   	movsb  %ds:(%esi),%es:(%edi)
  while(n-- > 0)
 3d1:	39 f8                	cmp    %edi,%eax
 3d3:	75 fb                	jne    3d0 <memmove+0x20>
  return vdst;
}
 3d5:	5e                   	pop    %esi
 3d6:	89 d0                	mov    %edx,%eax
 3d8:	5f                   	pop    %edi
 3d9:	5d                   	pop    %ebp
 3da:	c3                   	ret    

000003db <fork>:
  name: \
    movl $SYS_ ## name, %eax; \
    int $T_SYSCALL; \
    ret

SYSCALL(fork)
 3db:	b8 01 00 00 00       	mov    $0x1,%eax
 3e0:	cd 40                	int    $0x40
 3e2:	c3                   	ret    

000003e3 <exit>:
SYSCALL(exit)
 3e3:	b8 02 00 00 00       	mov    $0x2,%eax
 3e8:	cd 40                	int    $0x40
 3ea:	c3                   	ret    

000003eb <wait>:
SYSCALL(wait)
 3eb:	b8 03 00 00 00       	mov    $0x3,%eax
 3f0:	cd 40                	int    $0x40
 3f2:	c3                   	ret    

000003f3 <pipe>:
SYSCALL(pipe)
 3f3:	b8 04 00 00 00       	mov    $0x4,%eax
 3f8:	cd 40                	int    $0x40
 3fa:	c3                   	ret    

000003fb <read>:
SYSCALL(read)
 3fb:	b8 05 00 00 00       	mov    $0x5,%eax
 400:	cd 40                	int    $0x40
 402:	c3                   	ret    

00000403 <write>:
SYSCALL(write)
 403:	b8 10 00 00 00       	mov    $0x10,%eax
 408:	cd 40                	int    $0x40
 40a:	c3                   	ret    

0000040b <close>:
SYSCALL(close)
 40b:	b8 15 00 00 00       	mov    $0x15,%eax
 410:	cd 40                	int    $0x40
 412:	c3                   	ret    

00000413 <kill>:
SYSCALL(kill)
 413:	b8 06 00 00 00       	mov    $0x6,%eax
 418:	cd 40                	int    $0x40
 41a:	c3                   	ret    

0000041b <exec>:
SYSCALL(exec)
 41b:	b8 07 00 00 00       	mov    $0x7,%eax
 420:	cd 40                	int    $0x40
 422:	c3                   	ret    

00000423 <open>:
SYSCALL(open)
 423:	b8 0f 00 00 00       	mov    $0xf,%eax
 428:	cd 40                	int    $0x40
 42a:	c3                   	ret    

0000042b <mknod>:
SYSCALL(mknod)
 42b:	b8 11 00 00 00       	mov    $0x11,%eax
 430:	cd 40                	int    $0x40
 432:	c3                   	ret    

00000433 <unlink>:
SYSCALL(unlink)
 433:	b8 12 00 00 00       	mov    $0x12,%eax
 438:	cd 40                	int    $0x40
 43a:	c3                   	ret    

0000043b <fstat>:
SYSCALL(fstat)
 43b:	b8 08 00 00 00       	mov    $0x8,%eax
 440:	cd 40                	int    $0x40
 442:	c3                   	ret    

00000443 <link>:
SYSCALL(link)
 443:	b8 13 00 00 00       	mov    $0x13,%eax
 448:	cd 40                	int    $0x40
 44a:	c3                   	ret    

0000044b <mkdir>:
SYSCALL(mkdir)
 44b:	b8 14 00 00 00       	mov    $0x14,%eax
 450:	cd 40                	int    $0x40
 452:	c3                   	ret    

00000453 <chdir>:
SYSCALL(chdir)
 453:	b8 09 00 00 00       	mov    $0x9,%eax
 458:	cd 40                	int    $0x40
 45a:	c3                   	ret    

0000045b <dup>:
SYSCALL(dup)
 45b:	b8 0a 00 00 00       	mov    $0xa,%eax
 460:	cd 40                	int    $0x40
 462:	c3                   	ret    

00000463 <getpid>:
SYSCALL(getpid)
 463:	b8 0b 00 00 00       	mov    $0xb,%eax
 468:	cd 40                	int    $0x40
 46a:	c3                   	ret    

0000046b <sbrk>:
SYSCALL(sbrk)
 46b:	b8 0c 00 00 00       	mov    $0xc,%eax
 470:	cd 40                	int    $0x40
 472:	c3                   	ret    

00000473 <sleep>:
SYSCALL(sleep)
 473:	b8 0d 00 00 00       	mov    $0xd,%eax
 478:	cd 40                	int    $0x40
 47a:	c3                   	ret    

0000047b <uptime>:
SYSCALL(uptime)
 47b:	b8 0e 00 00 00       	mov    $0xe,%eax
 480:	cd 40                	int    $0x40
 482:	c3                   	ret    

00000483 <hello>:
SYSCALL(hello)
 483:	b8 16 00 00 00       	mov    $0x16,%eax
 488:	cd 40                	int    $0x40
 48a:	c3                   	ret    

0000048b <helloYou>:
SYSCALL(helloYou)
 48b:	b8 17 00 00 00       	mov    $0x17,%eax
 490:	cd 40                	int    $0x40
 492:	c3                   	ret    

00000493 <getNumProc>:
SYSCALL(getNumProc)
 493:	b8 18 00 00 00       	mov    $0x18,%eax
 498:	cd 40                	int    $0x40
 49a:	c3                   	ret    

0000049b <getMaxPid>:
SYSCALL(getMaxPid)
 49b:	b8 19 00 00 00       	mov    $0x19,%eax
 4a0:	cd 40                	int    $0x40
 4a2:	c3                   	ret    

000004a3 <getProcInfo>:
SYSCALL(getProcInfo)
 4a3:	b8 1a 00 00 00       	mov    $0x1a,%eax
 4a8:	cd 40                	int    $0x40
 4aa:	c3                   	ret    

000004ab <welcomeFunction>:
SYSCALL(welcomeFunction)
 4ab:	b8 1b 00 00 00       	mov    $0x1b,%eax
 4b0:	cd 40                	int    $0x40
 4b2:	c3                   	ret    

000004b3 <welcomeDone>:
SYSCALL(welcomeDone)
 4b3:	b8 1c 00 00 00       	mov    $0x1c,%eax
 4b8:	cd 40                	int    $0x40
 4ba:	c3                   	ret    

000004bb <setprio>:
SYSCALL(setprio)
 4bb:	b8 1d 00 00 00       	mov    $0x1d,%eax
 4c0:	cd 40                	int    $0x40
 4c2:	c3                   	ret    

000004c3 <getprio>:
SYSCALL(getprio)
 4c3:	b8 1e 00 00 00       	mov    $0x1e,%eax
 4c8:	cd 40                	int    $0x40
 4ca:	c3                   	ret    

000004cb <heapSize>:
SYSCALL(heapSize)
 4cb:	b8 1f 00 00 00       	mov    $0x1f,%eax
 4d0:	cd 40                	int    $0x40
 4d2:	c3                   	ret    

000004d3 <getLevel>:
SYSCALL(getLevel)
 4d3:	b8 20 00 00 00       	mov    $0x20,%eax
 4d8:	cd 40                	int    $0x40
 4da:	c3                   	ret    

000004db <trace>:
 4db:	b8 21 00 00 00       	mov    $0x21,%eax
 4e0:	cd 40                	int    $0x40
 4e2:	c3                   	ret    
 4e3:	66 90                	xchg   %ax,%ax
 4e5:	66 90                	xchg   %ax,%ax
 4e7:	66 90                	xchg   %ax,%ax
 4e9:	66 90                	xchg   %ax,%ax
 4eb:	66 90                	xchg   %ax,%ax
 4ed:	66 90                	xchg   %ax,%ax
 4ef:	90                   	nop

000004f0 <printint>:
  write(fd, &c, 1);
}

static void
printint(int fd, int xx, int base, int sgn)
{
 4f0:	55                   	push   %ebp
 4f1:	89 e5                	mov    %esp,%ebp
 4f3:	57                   	push   %edi
 4f4:	56                   	push   %esi
 4f5:	53                   	push   %ebx
 4f6:	83 ec 3c             	sub    $0x3c,%esp
 4f9:	89 4d c4             	mov    %ecx,-0x3c(%ebp)
  uint x;

  neg = 0;
  if(sgn && xx < 0){
    neg = 1;
    x = -xx;
 4fc:	89 d1                	mov    %edx,%ecx
{
 4fe:	89 45 b8             	mov    %eax,-0x48(%ebp)
  if(sgn && xx < 0){
 501:	85 d2                	test   %edx,%edx
 503:	0f 89 7f 00 00 00    	jns    588 <printint+0x98>
 509:	f6 45 08 01          	testb  $0x1,0x8(%ebp)
 50d:	74 79                	je     588 <printint+0x98>
    neg = 1;
 50f:	c7 45 bc 01 00 00 00 	movl   $0x1,-0x44(%ebp)
    x = -xx;
 516:	f7 d9                	neg    %ecx
  } else {
    x = xx;
  }

  i = 0;
 518:	31 db                	xor    %ebx,%ebx
 51a:	8d 75 d7             	lea    -0x29(%ebp),%esi
 51d:	8d 76 00             	lea    0x0(%esi),%esi
  do{
    buf[i++] = digits[x % base];
 520:	89 c8                	mov    %ecx,%eax
 522:	31 d2                	xor    %edx,%edx
 524:	89 cf                	mov    %ecx,%edi
 526:	f7 75 c4             	divl   -0x3c(%ebp)
 529:	0f b6 92 b0 09 00 00 	movzbl 0x9b0(%edx),%edx
 530:	89 45 c0             	mov    %eax,-0x40(%ebp)
 533:	89 d8                	mov    %ebx,%eax
 535:	8d 5b 01             	lea    0x1(%ebx),%ebx
  }while((x /= base) != 0);
 538:	8b 4d c0             	mov    -0x40(%ebp),%ecx
    buf[i++] = digits[x % base];
 53b:	88 14 1e             	mov    %dl,(%esi,%ebx,1)
  }while((x /= base) != 0);
 53e:	39 7d c4             	cmp    %edi,-0x3c(%ebp)
 541:	76 dd                	jbe    520 <printint+0x30>
  if(neg)
 543:	8b 4d bc             	mov    -0x44(%ebp),%ecx
 546:	85 c9                	test   %ecx,%ecx
 548:	74 0c                	je     556 <printint+0x66>
    buf[i++] = '-';
 54a:	c6 44 1d d8 2d       	movb   $0x2d,-0x28(%ebp,%ebx,1)
    buf[i++] = digits[x % base];
 54f:	89 d8                	mov    %ebx,%eax
    buf[i++] = '-';
 551:	ba 2d 00 00 00       	mov    $0x2d,%edx

  while(--i >= 0)
 556:	8b 7d b8             	mov    -0x48(%ebp),%edi
 559:	8d 5c 05 d7          	lea    -0x29(%ebp,%eax,1),%ebx
 55d:	eb 07                	jmp    566 <printint+0x76>
 55f:	90                   	nop
    putc(fd, buf[i]);
 560:	0f b6 13             	movzbl (%ebx),%edx
 563:	83 eb 01             	sub    $0x1,%ebx
  write(fd, &c, 1);
 566:	83 ec 04             	sub    $0x4,%esp
 569:	88 55 d7             	mov    %dl,-0x29(%ebp)
 56c:	6a 01                	push   $0x1
 56e:	56                   	push   %esi
 56f:	57                   	push   %edi
 570:	e8 8e fe ff ff       	call   403 <write>
  while(--i >= 0)
 575:	83 c4 10             	add    $0x10,%esp
 578:	39 de                	cmp    %ebx,%esi
 57a:	75 e4                	jne    560 <printint+0x70>
}
 57c:	8d 65 f4             	lea    -0xc(%ebp),%esp
 57f:	5b                   	pop    %ebx
 580:	5e                   	pop    %esi
 581:	5f                   	pop    %edi
 582:	5d                   	pop    %ebp
 583:	c3                   	ret    
 584:	8d 74 26 00          	lea    0x0(%esi,%eiz,1),%esi
  neg = 0;
 588:	c7 45 bc 00 00 00 00 	movl   $0x0,-0x44(%ebp)
 58f:	eb 87                	jmp    518 <printint+0x28>
 591:	8d b4 26 00 00 00 00 	lea    0x0(%esi,%eiz,1),%esi
 598:	8d b4 26 00 00 00 00 	lea    0x0(%esi,%eiz,1),%esi
 59f:	90                   	nop

000005a0 <printf>:

// Print to the given fd. Only understands %d, %x, %p, %s.
void
printf(int fd, const char *fmt, ...)
{
 5a0:	55                   	push   %ebp
 5a1:	89 e5                	mov    %esp,%ebp
 5a3:	57                   	push   %edi
 5a4:	56                   	push   %esi
 5a5:	53                   	push   %ebx
 5a6:	83 ec 2c             	sub    $0x2c,%esp
  int c, i, state;
  uint *ap;

  state = 0;
  ap = (uint*)(void*)&fmt + 1;
  for(i = 0; fmt[i]; i++){
 5a9:	8b 5d 0c             	mov    0xc(%ebp),%ebx
{
 5ac:	8b 75 08             	mov    0x8(%ebp),%esi
  for(i = 0; fmt[i]; i++){
 5af:	0f b6 13             	movzbl (%ebx),%edx
 5b2:	84 d2                	test   %dl,%dl
 5b4:	74 6a                	je     620 <printf+0x80>
  ap = (uint*)(void*)&fmt + 1;
 5b6:	8d 45 10             	lea    0x10(%ebp),%eax
 5b9:	83 c3 01             	add    $0x1,%ebx
  write(fd, &c, 1);
 5bc:	8d 7d e7             	lea    -0x19(%ebp),%edi
  state = 0;
 5bf:	31 c9                	xor    %ecx,%ecx
  ap = (uint*)(void*)&fmt + 1;
 5c1:	89 45 d0             	mov    %eax,-0x30(%ebp)
 5c4:	eb 36                	jmp    5fc <printf+0x5c>
 5c6:	8d b4 26 00 00 00 00 	lea    0x0(%esi,%eiz,1),%esi
 5cd:	8d 76 00             	lea    0x0(%esi),%esi
 5d0:	89 4d d4             	mov    %ecx,-0x2c(%ebp)
    c = fmt[i] & 0xff;
    if(state == 0){
      if(c == '%'){
        state = '%';
 5d3:	b9 25 00 00 00       	mov    $0x25,%ecx
      if(c == '%'){
 5d8:	83 f8 25             	cmp    $0x25,%eax
 5db:	74 15                	je     5f2 <printf+0x52>
  write(fd, &c, 1);
 5dd:	83 ec 04             	sub    $0x4,%esp
 5e0:	88 55 e7             	mov    %dl,-0x19(%ebp)
 5e3:	6a 01                	push   $0x1
 5e5:	57                   	push   %edi
 5e6:	56                   	push   %esi
 5e7:	e8 17 fe ff ff       	call   403 <write>
 5ec:	8b 4d d4             	mov    -0x2c(%ebp),%ecx
      } else {
        putc(fd, c);
 5ef:	83 c4 10             	add    $0x10,%esp
  for(i = 0; fmt[i]; i++){
 5f2:	0f b6 13             	movzbl (%ebx),%edx
 5f5:	83 c3 01             	add    $0x1,%ebx
 5f8:	84 d2                	test   %dl,%dl
 5fa:	74 24                	je     620 <printf+0x80>
    c = fmt[i] & 0xff;
 5fc:	0f b6 c2             	movzbl %dl,%eax
    if(state == 0){
 5ff:	85 c9                	test   %ecx,%ecx
 601:	74 cd                	je     5d0 <printf+0x30>
      }
    } else if(state == '%'){
 603:	83 f9 25             	cmp    $0x25,%ecx
 606:	75 ea                	jne    5f2 <printf+0x52>
      if(c == 'd'){
 608:	83 f8 25             	cmp    $0x25,%eax
 60b:	0f 84 07 01 00 00    	je     718 <printf+0x178>
 611:	83 e8 63             	sub    $0x63,%eax
 614:	83 f8 15             	cmp    $0x15,%eax
 617:	77 17                	ja     630 <printf+0x90>
 619:	ff 24 85 58 09 00 00 	jmp    *0x958(,%eax,4)
        putc(fd, c);
      }
      state = 0;
    }
  }
}
 620:	8d 65 f4             	lea    -0xc(%ebp),%esp
 623:	5b                   	pop    %ebx
 624:	5e                   	pop    %esi
 625:	5f                   	pop    %edi
 626:	5d                   	pop    %ebp
 627:	c3                   	ret    
 628:	8d b4 26 00 00 00 00 	lea    0x0(%esi,%eiz,1),%esi
 62f:	90                   	nop
  write(fd, &c, 1);
 630:	83 ec 04             	sub    $0x4,%esp
 633:	88 55 d4             	mov    %dl,-0x2c(%ebp)
 636:	6a 01                	push   $0x1
 638:	57                   	push   %edi
 639:	56                   	push   %esi
 63a:	c6 45 e7 25          	movb   $0x25,-0x19(%ebp)
 63e:	e8 c0 fd ff ff       	call   403 <write>
        putc(fd, c);
 643:	0f b6 55 d4          	movzbl -0x2c(%ebp),%edx
  write(fd, &c, 1);
 647:	83 c4 0c             	add    $0xc,%esp
 64a:	88 55 e7             	mov    %dl,-0x19(%ebp)
 64d:	6a 01                	push   $0x1
 64f:	57                   	push   %edi
 650:	56                   	push   %esi
 651:	e8 ad fd ff ff       	call   403 <write>
        putc(fd, c);
 656:	83 c4 10             	add    $0x10,%esp
      state = 0;
 659:	31 c9                	xor    %ecx,%ecx
 65b:	eb 95                	jmp    5f2 <printf+0x52>
 65d:	8d 76 00             	lea    0x0(%esi),%esi
        printint(fd, *ap, 16, 0);
 660:	83 ec 0c             	sub    $0xc,%esp
 663:	b9 10 00 00 00       	mov    $0x10,%ecx
 668:	6a 00                	push   $0x0
 66a:	8b 45 d0             	mov    -0x30(%ebp),%eax
 66d:	8b 10                	mov    (%eax),%edx
 66f:	89 f0                	mov    %esi,%eax
 671:	e8 7a fe ff ff       	call   4f0 <printint>
        ap++;
 676:	83 45 d0 04          	addl   $0x4,-0x30(%ebp)
 67a:	83 c4 10             	add    $0x10,%esp
      state = 0;
 67d:	31 c9                	xor    %ecx,%ecx
 67f:	e9 6e ff ff ff       	jmp    5f2 <printf+0x52>
 684:	8d 74 26 00          	lea    0x0(%esi,%eiz,1),%esi
        s = (char*)*ap;
 688:	8b 45 d0             	mov    -0x30(%ebp),%eax
 68b:	8b 10                	mov    (%eax),%edx
        ap++;
 68d:	83 c0 04             	add    $0x4,%eax
 690:	89 45 d0             	mov    %eax,-0x30(%ebp)
        if(s == 0)
 693:	85 d2                	test   %edx,%edx
 695:	0f 84 8d 00 00 00    	je     728 <printf+0x188>
        while(*s != 0){
 69b:	0f b6 02             	movzbl (%edx),%eax
      state = 0;
 69e:	31 c9                	xor    %ecx,%ecx
        while(*s != 0){
 6a0:	84 c0                	test   %al,%al
 6a2:	0f 84 4a ff ff ff    	je     5f2 <printf+0x52>
 6a8:	89 5d d4             	mov    %ebx,-0x2c(%ebp)
 6ab:	89 d3                	mov    %edx,%ebx
 6ad:	8d 76 00             	lea    0x0(%esi),%esi
  write(fd, &c, 1);
 6b0:	83 ec 04             	sub    $0x4,%esp
          s++;
 6b3:	83 c3 01             	add    $0x1,%ebx
 6b6:	88 45 e7             	mov    %al,-0x19(%ebp)
  write(fd, &c, 1);
 6b9:	6a 01                	push   $0x1
 6bb:	57                   	push   %edi
 6bc:	56                   	push   %esi
 6bd:	e8 41 fd ff ff       	call   403 <write>
        while(*s != 0){
 6c2:	0f b6 03             	movzbl (%ebx),%eax
 6c5:	83 c4 10             	add    $0x10,%esp
 6c8:	84 c0                	test   %al,%al
 6ca:	75 e4                	jne    6b0 <printf+0x110>
      state = 0;
 6cc:	8b 5d d4             	mov    -0x2c(%ebp),%ebx
 6cf:	31 c9                	xor    %ecx,%ecx
 6d1:	e9 1c ff ff ff       	jmp    5f2 <printf+0x52>
 6d6:	8d b4 26 00 00 00 00 	lea    0x0(%esi,%eiz,1),%esi
 6dd:	8d 76 00             	lea    0x0(%esi),%esi
        printint(fd, *ap, 10, 1);
 6e0:	83 ec 0c             	sub    $0xc,%esp
 6e3:	b9 0a 00 00 00       	mov    $0xa,%ecx
 6e8:	6a 01                	push   $0x1
 6ea:	e9 7b ff ff ff       	jmp    66a <printf+0xca>
 6ef:	90                   	nop
        putc(fd, *ap);
 6f0:	8b 45 d0             	mov    -0x30(%ebp),%eax
  write(fd, &c, 1);
 6f3:	83 ec 04             	sub    $0x4,%esp
        putc(fd, *ap);
 6f6:	8b 00                	mov    (%eax),%eax
  write(fd, &c, 1);
 6f8:	6a 01                	push   $0x1
 6fa:	57                   	push   %edi
 6fb:	56                   	push   %esi
        putc(fd, *ap);
 6fc:	88 45 e7             	mov    %al,-0x19(%ebp)
  write(fd, &c, 1);
 6ff:	e8 ff fc ff ff       	call   403 <write>
        ap++;
 704:	83 45 d0 04          	addl   $0x4,-0x30(%ebp)
 708:	83 c4 10             	add    $0x10,%esp
      state = 0;
 70b:	31 c9                	xor    %ecx,%ecx
 70d:	e9 e0 fe ff ff       	jmp    5f2 <printf+0x52>
 712:	8d b6 00 00 00 00    	lea    0x0(%esi),%esi
        putc(fd, c);
 718:	88 55 e7             	mov    %dl,-0x19(%ebp)
  write(fd, &c, 1);
 71b:	83 ec 04             	sub    $0x4,%esp
 71e:	e9 2a ff ff ff       	jmp    64d <printf+0xad>
 723:	8d 74 26 00          	lea    0x0(%esi,%eiz,1),%esi
 727:	90                   	nop
          s = "(null)";
 728:	ba 51 09 00 00       	mov    $0x951,%edx
        while(*s != 0){
 72d:	89 5d d4             	mov    %ebx,-0x2c(%ebp)
 730:	b8 28 00 00 00       	mov    $0x28,%eax
 735:	89 d3                	mov    %edx,%ebx
 737:	e9 74 ff ff ff       	jmp    6b0 <printf+0x110>
 73c:	66 90                	xchg   %ax,%ax
 73e:	66 90                	xchg   %ax,%ax

00000740 <free>:
static Header base;
static Header *freep;

void
free(void *ap)
{
 740:	55                   	push   %ebp
  Header *bp, *p;

  bp = (Header*)ap - 1;
  for(p = freep; !(bp > p && bp < p->s.ptr); p = p->s.ptr)
 741:	a1 98 0c 00 00       	mov    0xc98,%eax
{
 746:	89 e5                	mov    %esp,%ebp
 748:	57                   	push   %edi
 749:	56                   	push   %esi
 74a:	53                   	push   %ebx
 74b:	8b 5d 08             	mov    0x8(%ebp),%ebx
  bp = (Header*)ap - 1;
 74e:	8d 4b f8             	lea    -0x8(%ebx),%ecx
  for(p = freep; !(bp > p && bp < p->s.ptr); p = p->s.ptr)
 751:	8d b4 26 00 00 00 00 	lea    0x0(%esi,%eiz,1),%esi
 758:	89 c2                	mov    %eax,%edx
 75a:	8b 00                	mov    (%eax),%eax
 75c:	39 ca                	cmp    %ecx,%edx
 75e:	73 30                	jae    790 <free+0x50>
 760:	39 c1                	cmp    %eax,%ecx
 762:	72 04                	jb     768 <free+0x28>
    if(p >= p->s.ptr && (bp > p || bp < p->s.ptr))
 764:	39 c2                	cmp    %eax,%edx
 766:	72 f0                	jb     758 <free+0x18>
      break;
  if(bp + bp->s.size == p->s.ptr){
 768:	8b 73 fc             	mov    -0x4(%ebx),%esi
 76b:	8d 3c f1             	lea    (%ecx,%esi,8),%edi
 76e:	39 f8                	cmp    %edi,%eax
 770:	74 30                	je     7a2 <free+0x62>
    bp->s.size += p->s.ptr->s.size;
    bp->s.ptr = p->s.ptr->s.ptr;
 772:	89 43 f8             	mov    %eax,-0x8(%ebx)
  } else
    bp->s.ptr = p->s.ptr;
  if(p + p->s.size == bp){
 775:	8b 42 04             	mov    0x4(%edx),%eax
 778:	8d 34 c2             	lea    (%edx,%eax,8),%esi
 77b:	39 f1                	cmp    %esi,%ecx
 77d:	74 3a                	je     7b9 <free+0x79>
    p->s.size += bp->s.size;
    p->s.ptr = bp->s.ptr;
 77f:	89 0a                	mov    %ecx,(%edx)
  } else
    p->s.ptr = bp;
  freep = p;
}
 781:	5b                   	pop    %ebx
  freep = p;
 782:	89 15 98 0c 00 00    	mov    %edx,0xc98
}
 788:	5e                   	pop    %esi
 789:	5f                   	pop    %edi
 78a:	5d                   	pop    %ebp
 78b:	c3                   	ret    
 78c:	8d 74 26 00          	lea    0x0(%esi,%eiz,1),%esi
    if(p >= p->s.ptr && (bp > p || bp < p->s.ptr))
 790:	39 c2                	cmp    %eax,%edx
 792:	72 c4                	jb     758 <free+0x18>
 794:	39 c1                	cmp    %eax,%ecx
 796:	73 c0                	jae    758 <free+0x18>
  if(bp + bp->s.size == p->s.ptr){
 798:	8b 73 fc             	mov    -0x4(%ebx),%esi
 79b:	8d 3c f1             	lea    (%ecx,%esi,8),%edi
 79e:	39 f8                	cmp    %edi,%eax
 7a0:	75 d0                	jne    772 <free+0x32>
    bp->s.size += p->s.ptr->s.size;
 7a2:	03 70 04             	add    0x4(%eax),%esi
 7a5:	89 73 fc             	mov    %esi,-0x4(%ebx)
    bp->s.ptr = p->s.ptr->s.ptr;
 7a8:	8b 02                	mov    (%edx),%eax
 7aa:	8b 00                	mov    (%eax),%eax
 7ac:	89 43 f8             	mov    %eax,-0x8(%ebx)
  if(p + p->s.size == bp){
 7af:	8b 42 04             	mov    0x4(%edx),%eax
 7b2:	8d 34 c2             	lea    (%edx,%eax,8),%esi
 7b5:	39 f1                	cmp    %esi,%ecx
 7b7:	75 c6                	jne    77f <free+0x3f>
    p->s.size += bp->s.size;
 7b9:	03 43 fc             	add    -0x4(%ebx),%eax
  freep = p;
 7bc:	89 15 98 0c 00 00    	mov    %edx,0xc98
    p->s.size += bp->s.size;
 7c2:	89 42 04             	mov    %eax,0x4(%edx)
    p->s.ptr = bp->s.ptr;
 7c5:	8b 4b f8             	mov    -0x8(%ebx),%ecx
 7c8:	89 0a                	mov    %ecx,(%edx)
}
 7ca:	5b                   	pop    %ebx
 7cb:	5e                   	pop    %esi
 7cc:	5f                   	pop    %edi
 7cd:	5d                   	pop    %ebp
 7ce:	c3                   	ret    
 7cf:	90                   	nop

000007d0 <malloc>:
  return freep;
}

void*
malloc(uint nbytes)
{
 7d0:	55                   	push   %ebp
 7d1:	89 e5                	mov    %esp,%ebp
 7d3:	57                   	push   %edi
 7d4:	56                   	push   %esi
 7d5:	53                   	push   %ebx
 7d6:	83 ec 1c             	sub    $0x1c,%esp
  Header *p, *prevp;
  uint nunits;

  nunits = (nbytes + sizeof(Header) - 1)/sizeof(Header) + 1;
 7d9:	8b 45 08             	mov    0x8(%ebp),%eax
  if((prevp = freep) == 0){
 7dc:	8b 3d 98 0c 00 00    	mov    0xc98,%edi
  nunits = (nbytes + sizeof(Header) - 1)/sizeof(Header) + 1;
 7e2:	8d 70 07             	lea    0x7(%eax),%esi
 7e5:	c1 ee 03             	shr    $0x3,%esi
 7e8:	83 c6 01             	add    $0x1,%esi
  if((prevp = freep) == 0){
 7eb:	85 ff                	test   %edi,%edi
 7ed:	0f 84 9d 00 00 00    	je     890 <malloc+0xc0>
    base.s.ptr = freep = prevp = &base;
    base.s.size = 0;
  }
  for(p = prevp->s.ptr; ; prevp = p, p = p->s.ptr){
 7f3:	8b 17                	mov    (%edi),%edx
    if(p->s.size >= nunits){
 7f5:	8b 4a 04             	mov    0x4(%edx),%ecx
 7f8:	39 f1                	cmp    %esi,%ecx
 7fa:	73 6a                	jae    866 <malloc+0x96>
 7fc:	bb 00 10 00 00       	mov    $0x1000,%ebx
 801:	39 de                	cmp    %ebx,%esi
 803:	0f 43 de             	cmovae %esi,%ebx
  p = sbrk(nu * sizeof(Header));
 806:	8d 04 dd 00 00 00 00 	lea    0x0(,%ebx,8),%eax
 80d:	89 45 e4             	mov    %eax,-0x1c(%ebp)
 810:	eb 17                	jmp    829 <malloc+0x59>
 812:	8d b6 00 00 00 00    	lea    0x0(%esi),%esi
  for(p = prevp->s.ptr; ; prevp = p, p = p->s.ptr){
 818:	8b 02                	mov    (%edx),%eax
    if(p->s.size >= nunits){
 81a:	8b 48 04             	mov    0x4(%eax),%ecx
 81d:	39 f1                	cmp    %esi,%ecx
 81f:	73 4f                	jae    870 <malloc+0xa0>
        p->s.size = nunits;
      }
      freep = prevp;
      return (void*)(p + 1);
    }
    if(p == freep)
 821:	8b 3d 98 0c 00 00    	mov    0xc98,%edi
 827:	89 c2                	mov    %eax,%edx
 829:	39 d7                	cmp    %edx,%edi
 82b:	75 eb                	jne    818 <malloc+0x48>
  p = sbrk(nu * sizeof(Header));
 82d:	83 ec 0c             	sub    $0xc,%esp
 830:	ff 75 e4             	push   -0x1c(%ebp)
 833:	e8 33 fc ff ff       	call   46b <sbrk>
  if(p == (char*)-1)
 838:	83 c4 10             	add    $0x10,%esp
 83b:	83 f8 ff             	cmp    $0xffffffff,%eax
 83e:	74 1c                	je     85c <malloc+0x8c>
  hp->s.size = nu;
 840:	89 58 04             	mov    %ebx,0x4(%eax)
  free((void*)(hp + 1));
 843:	83 ec 0c             	sub    $0xc,%esp
 846:	83 c0 08             	add    $0x8,%eax
 849:	50                   	push   %eax
 84a:	e8 f1 fe ff ff       	call   740 <free>
  return freep;
 84f:	8b 15 98 0c 00 00    	mov    0xc98,%edx
      if((p = morecore(nunits)) == 0)
 855:	83 c4 10             	add    $0x10,%esp
 858:	85 d2                	test   %edx,%edx
 85a:	75 bc                	jne    818 <malloc+0x48>
        return 0;
  }
}
 85c:	8d 65 f4             	lea    -0xc(%ebp),%esp
        return 0;
 85f:	31 c0                	xor    %eax,%eax
}
 861:	5b                   	pop    %ebx
 862:	5e                   	pop    %esi
 863:	5f                   	pop    %edi
 864:	5d                   	pop    %ebp
 865:	c3                   	ret    
    if(p->s.size >= nunits){
 866:	89 d0                	mov    %edx,%eax
 868:	89 fa                	mov    %edi,%edx
 86a:	8d b6 00 00 00 00    	lea    0x0(%esi),%esi
      if(p->s.size == nunits)
 870:	39 ce                	cmp    %ecx,%esi
 872:	74 4c                	je     8c0 <malloc+0xf0>
        p->s.size -= nunits;
 874:	29 f1                	sub    %esi,%ecx
 876:	89 48 04             	mov    %ecx,0x4(%eax)
        p += p->s.size;
 879:	8d 04 c8             	lea    (%eax,%ecx,8),%eax
        p->s.size = nunits;
 87c:	89 70 04             	mov    %esi,0x4(%eax)
      freep = prevp;
 87f:	89 15 98 0c 00 00    	mov    %edx,0xc98
}
 885:	8d 65 f4             	lea    -0xc(%ebp),%esp
      return (void*)(p + 1);
 888:	83 c0 08             	add    $0x8,%eax
}
 88b:	5b                   	pop    %ebx
 88c:	5e                   	pop    %esi
 88d:	5f                   	pop    %edi
 88e:	5d                   	pop    %ebp
 88f:	c3                   	ret    
    base.s.ptr = freep = prevp = &base;
 890:	c7 05 98 0c 00 00 9c 	movl   $0xc9c,0xc98
 897:	0c 00 00 
    base.s.size = 0;
 89a:	bf 9c 0c 00 00       	mov    $0xc9c,%edi
    base.s.ptr = freep = prevp = &base;
 89f:	c7 05 9c 0c 00 00 9c 	movl   $0xc9c,0xc9c
 8a6:	0c 00 00 
  for(p = prevp->s.ptr; ; prevp = p, p = p->s.ptr){
 8a9:	89 fa                	mov    %edi,%edx
    base.s.size = 0;
 8ab:	c7 05 a0 0c 00 00 00 	movl   $0x0,0xca0
 8b2:	00 00 00 
    if(p->s.size >= nunits){
 8b5:	e9 42 ff ff ff       	jmp    7fc <malloc+0x2c>
 8ba:	8d b6 00 00 00 00    	lea    0x0(%esi),%esi
        prevp->s.ptr = p->s.ptr;
 8c0:	8b 08                	mov    (%eax),%ecx
 8c2:	89 0a                	mov    %ecx,(%edx)
 8c4:	eb b9                	jmp    87f <malloc+0xaf>
